target datalayout = "e-m:e-p270:32:32-p271:32:32-p272:64:64-i64:64-i128:128-f80:128-n8:16:32:64-S128"
target triple = "x86_64-pc-linux-gnu"

%struct.jv = type { i8, i8, i16, i32, %union.anon }
%union.anon = type { ptr }

@stderr = external global ptr, align 8
@.str.15 = private unnamed_addr constant [26 x i8] c"jq: error: out of memory\0A\00", align 1
@.str.16 = private unnamed_addr constant [14 x i8] c"jq: error: %s\00", align 1

; Function Attrs: nounwind uwtable
define dso_local { i64, ptr } @jq_format_error(i64 %0, ptr %1) #0 {
  %3 = alloca %struct.jv, align 8
  %4 = alloca %struct.jv, align 8
  %5 = alloca %struct.jv, align 8
  %6 = alloca %struct.jv, align 8
  %7 = alloca %struct.jv, align 8
  %8 = alloca %struct.jv, align 8
  %9 = alloca %struct.jv, align 8
  %10 = getelementptr inbounds nuw { i64, ptr }, ptr %4, i32 0, i32 0
  store i64 %0, ptr %10, align 8
  %11 = getelementptr inbounds nuw { i64, ptr }, ptr %4, i32 0, i32 1
  store ptr %1, ptr %11, align 8
  %12 = getelementptr inbounds nuw { i64, ptr }, ptr %4, i32 0, i32 0
  %13 = load i64, ptr %12, align 8
  %14 = getelementptr inbounds nuw { i64, ptr }, ptr %4, i32 0, i32 1
  %15 = load ptr, ptr %14, align 8
  %16 = call i32 @jv_get_kind(i64 %13, ptr %15)
  %17 = icmp eq i32 %16, 1
  br i1 %17, label %41, label %18

18:                                               ; preds = %2
  %19 = getelementptr inbounds nuw { i64, ptr }, ptr %4, i32 0, i32 0
  %20 = load i64, ptr %19, align 8
  %21 = getelementptr inbounds nuw { i64, ptr }, ptr %4, i32 0, i32 1
  %22 = load ptr, ptr %21, align 8
  %23 = call i32 @jv_get_kind(i64 %20, ptr %22)
  %24 = icmp eq i32 %23, 0
  br i1 %24, label %25, label %53

25:                                               ; preds = %18
  %26 = getelementptr inbounds nuw { i64, ptr }, ptr %4, i32 0, i32 0
  %27 = load i64, ptr %26, align 8
  %28 = getelementptr inbounds nuw { i64, ptr }, ptr %4, i32 0, i32 1
  %29 = load ptr, ptr %28, align 8
  %30 = call { i64, ptr } @jv_copy(i64 %27, ptr %29)
  %31 = getelementptr inbounds nuw { i64, ptr }, ptr %5, i32 0, i32 0
  %32 = extractvalue { i64, ptr } %30, 0
  store i64 %32, ptr %31, align 8
  %33 = getelementptr inbounds nuw { i64, ptr }, ptr %5, i32 0, i32 1
  %34 = extractvalue { i64, ptr } %30, 1
  store ptr %34, ptr %33, align 8
  %35 = getelementptr inbounds nuw { i64, ptr }, ptr %5, i32 0, i32 0
  %36 = load i64, ptr %35, align 8
  %37 = getelementptr inbounds nuw { i64, ptr }, ptr %5, i32 0, i32 1
  %38 = load ptr, ptr %37, align 8
  %39 = call i32 @jv_invalid_has_msg(i64 %36, ptr %38)
  %40 = icmp ne i32 %39, 0
  br i1 %40, label %53, label %41

41:                                               ; preds = %25, %2
  %42 = getelementptr inbounds nuw { i64, ptr }, ptr %4, i32 0, i32 0
  %43 = load i64, ptr %42, align 8
  %44 = getelementptr inbounds nuw { i64, ptr }, ptr %4, i32 0, i32 1
  %45 = load ptr, ptr %44, align 8
  call void @jv_free(i64 %43, ptr %45)
  %46 = load ptr, ptr @stderr, align 8, !tbaa !88
  %47 = call i32 (ptr, ptr, ...) @fprintf(ptr noundef %46, ptr noundef @.str.15) #7
  %48 = call { i64, ptr } @jv_null()
  %49 = getelementptr inbounds nuw { i64, ptr }, ptr %3, i32 0, i32 0
  %50 = extractvalue { i64, ptr } %48, 0
  store i64 %50, ptr %49, align 8
  %51 = getelementptr inbounds nuw { i64, ptr }, ptr %3, i32 0, i32 1
  %52 = extractvalue { i64, ptr } %48, 1
  store ptr %52, ptr %51, align 8
  br label %181

53:                                               ; preds = %25, %18
  %54 = getelementptr inbounds nuw { i64, ptr }, ptr %4, i32 0, i32 0
  %55 = load i64, ptr %54, align 8
  %56 = getelementptr inbounds nuw { i64, ptr }, ptr %4, i32 0, i32 1
  %57 = load ptr, ptr %56, align 8
  %58 = call i32 @jv_get_kind(i64 %55, ptr %57)
  %59 = icmp eq i32 %58, 5
  br i1 %59, label %60, label %61

60:                                               ; preds = %53
  call void @llvm.memcpy.p0.p0.i64(ptr align 8 %3, ptr align 8 %4, i64 16, i1 false), !tbaa.struct !18
  br label %181

61:                                               ; preds = %53
  %62 = getelementptr inbounds nuw { i64, ptr }, ptr %4, i32 0, i32 0
  %63 = load i64, ptr %62, align 8
  %64 = getelementptr inbounds nuw { i64, ptr }, ptr %4, i32 0, i32 1
  %65 = load ptr, ptr %64, align 8
  %66 = call i32 @jv_get_kind(i64 %63, ptr %65)
  %67 = icmp eq i32 %66, 0
  br i1 %67, label %68, label %78

68:                                               ; preds = %61
  call void @llvm.lifetime.start.p0(i64 16, ptr %6) #7
  %69 = getelementptr inbounds nuw { i64, ptr }, ptr %4, i32 0, i32 0
  %70 = load i64, ptr %69, align 8
  %71 = getelementptr inbounds nuw { i64, ptr }, ptr %4, i32 0, i32 1
  %72 = load ptr, ptr %71, align 8
  %73 = call { i64, ptr } @jv_invalid_get_msg(i64 %70, ptr %72)
  %74 = getelementptr inbounds nuw { i64, ptr }, ptr %6, i32 0, i32 0
  %75 = extractvalue { i64, ptr } %73, 0
  store i64 %75, ptr %74, align 8
  %76 = getelementptr inbounds nuw { i64, ptr }, ptr %6, i32 0, i32 1
  %77 = extractvalue { i64, ptr } %73, 1
  store ptr %77, ptr %76, align 8
  call void @llvm.memcpy.p0.p0.i64(ptr align 8 %4, ptr align 8 %6, i64 16, i1 false), !tbaa.struct !18
  call void @llvm.lifetime.end.p0(i64 16, ptr %6) #7
  br label %78

78:                                               ; preds = %68, %61
  %79 = getelementptr inbounds nuw { i64, ptr }, ptr %4, i32 0, i32 0
  %80 = load i64, ptr %79, align 8
  %81 = getelementptr inbounds nuw { i64, ptr }, ptr %4, i32 0, i32 1
  %82 = load ptr, ptr %81, align 8
  %83 = call i32 @jv_get_kind(i64 %80, ptr %82)
  %84 = icmp eq i32 %83, 1
  br i1 %84, label %85, label %95

85:                                               ; preds = %78
  %86 = getelementptr inbounds nuw { i64, ptr }, ptr %4, i32 0, i32 0
  %87 = load i64, ptr %86, align 8
  %88 = getelementptr inbounds nuw { i64, ptr }, ptr %4, i32 0, i32 1
  %89 = load ptr, ptr %88, align 8
  %90 = call { i64, ptr } @jq_format_error(i64 %87, ptr %89)
  %91 = getelementptr inbounds nuw { i64, ptr }, ptr %3, i32 0, i32 0
  %92 = extractvalue { i64, ptr } %90, 0
  store i64 %92, ptr %91, align 8
  %93 = getelementptr inbounds nuw { i64, ptr }, ptr %3, i32 0, i32 1
  %94 = extractvalue { i64, ptr } %90, 1
  store ptr %94, ptr %93, align 8
  br label %181

95:                                               ; preds = %78
  %96 = getelementptr inbounds nuw { i64, ptr }, ptr %4, i32 0, i32 0
  %97 = load i64, ptr %96, align 8
  %98 = getelementptr inbounds nuw { i64, ptr }, ptr %4, i32 0, i32 1
  %99 = load ptr, ptr %98, align 8
  %100 = call i32 @jv_get_kind(i64 %97, ptr %99)
  %101 = icmp ne i32 %100, 0
  br i1 %101, label %102, label %162

102:                                              ; preds = %95
  %103 = getelementptr inbounds nuw { i64, ptr }, ptr %4, i32 0, i32 0
  %104 = load i64, ptr %103, align 8
  %105 = getelementptr inbounds nuw { i64, ptr }, ptr %4, i32 0, i32 1
  %106 = load ptr, ptr %105, align 8
  %107 = call i32 @jv_get_kind(i64 %104, ptr %106)
  %108 = icmp eq i32 %107, 5
  br i1 %108, label %109, label %120

109:                                              ; preds = %102
  %110 = getelementptr inbounds nuw { i64, ptr }, ptr %4, i32 0, i32 0
  %111 = load i64, ptr %110, align 8
  %112 = getelementptr inbounds nuw { i64, ptr }, ptr %4, i32 0, i32 1
  %113 = load ptr, ptr %112, align 8
  %114 = call ptr @jv_string_value(i64 %111, ptr %113)
  %115 = call { i64, ptr } (ptr, ...) @jv_string_fmt(ptr noundef @.str.16, ptr noundef %114)
  %116 = getelementptr inbounds nuw { i64, ptr }, ptr %3, i32 0, i32 0
  %117 = extractvalue { i64, ptr } %115, 0
  store i64 %117, ptr %116, align 8
  %118 = getelementptr inbounds nuw { i64, ptr }, ptr %3, i32 0, i32 1
  %119 = extractvalue { i64, ptr } %115, 1
  store ptr %119, ptr %118, align 8
  br label %181

120:                                              ; preds = %102
  call void @llvm.lifetime.start.p0(i64 16, ptr %7) #7
  %121 = getelementptr inbounds nuw { i64, ptr }, ptr %4, i32 0, i32 0
  %122 = load i64, ptr %121, align 8
  %123 = getelementptr inbounds nuw { i64, ptr }, ptr %4, i32 0, i32 1
  %124 = load ptr, ptr %123, align 8
  %125 = call { i64, ptr } @jv_dump_string(i64 %122, ptr %124, i32 noundef 16)
  %126 = getelementptr inbounds nuw { i64, ptr }, ptr %7, i32 0, i32 0
  %127 = extractvalue { i64, ptr } %125, 0
  store i64 %127, ptr %126, align 8
  %128 = getelementptr inbounds nuw { i64, ptr }, ptr %7, i32 0, i32 1
  %129 = extractvalue { i64, ptr } %125, 1
  store ptr %129, ptr %128, align 8
  call void @llvm.memcpy.p0.p0.i64(ptr align 8 %4, ptr align 8 %7, i64 16, i1 false), !tbaa.struct !18
  call void @llvm.lifetime.end.p0(i64 16, ptr %7) #7
  %130 = getelementptr inbounds nuw { i64, ptr }, ptr %4, i32 0, i32 0
  %131 = load i64, ptr %130, align 8
  %132 = getelementptr inbounds nuw { i64, ptr }, ptr %4, i32 0, i32 1
  %133 = load ptr, ptr %132, align 8
  %134 = call i32 @jv_get_kind(i64 %131, ptr %133)
  %135 = icmp eq i32 %134, 5
  br i1 %135, label %136, label %147

136:                                              ; preds = %120
  %137 = getelementptr inbounds nuw { i64, ptr }, ptr %4, i32 0, i32 0
  %138 = load i64, ptr %137, align 8
  %139 = getelementptr inbounds nuw { i64, ptr }, ptr %4, i32 0, i32 1
  %140 = load ptr, ptr %139, align 8
  %141 = call ptr @jv_string_value(i64 %138, ptr %140)
  %142 = call { i64, ptr } (ptr, ...) @jv_string_fmt(ptr noundef @.str.16, ptr noundef %141)
  %143 = getelementptr inbounds nuw { i64, ptr }, ptr %3, i32 0, i32 0
  %144 = extractvalue { i64, ptr } %142, 0
  store i64 %144, ptr %143, align 8
  %145 = getelementptr inbounds nuw { i64, ptr }, ptr %3, i32 0, i32 1
  %146 = extractvalue { i64, ptr } %142, 1
  store ptr %146, ptr %145, align 8
  br label %181

147:                                              ; preds = %120
  %148 = call { i64, ptr } @jv_null()
  %149 = getelementptr inbounds nuw { i64, ptr }, ptr %8, i32 0, i32 0
  %150 = extractvalue { i64, ptr } %148, 0
  store i64 %150, ptr %149, align 8
  %151 = getelementptr inbounds nuw { i64, ptr }, ptr %8, i32 0, i32 1
  %152 = extractvalue { i64, ptr } %148, 1
  store ptr %152, ptr %151, align 8
  %153 = getelementptr inbounds nuw { i64, ptr }, ptr %8, i32 0, i32 0
  %154 = load i64, ptr %153, align 8
  %155 = getelementptr inbounds nuw { i64, ptr }, ptr %8, i32 0, i32 1
  %156 = load ptr, ptr %155, align 8
  %157 = call { i64, ptr } @jq_format_error(i64 %154, ptr %156)
  %158 = getelementptr inbounds nuw { i64, ptr }, ptr %3, i32 0, i32 0
  %159 = extractvalue { i64, ptr } %157, 0
  store i64 %159, ptr %158, align 8
  %160 = getelementptr inbounds nuw { i64, ptr }, ptr %3, i32 0, i32 1
  %161 = extractvalue { i64, ptr } %157, 1
  store ptr %161, ptr %160, align 8
  br label %181

162:                                              ; preds = %95
  %163 = getelementptr inbounds nuw { i64, ptr }, ptr %4, i32 0, i32 0
  %164 = load i64, ptr %163, align 8
  %165 = getelementptr inbounds nuw { i64, ptr }, ptr %4, i32 0, i32 1
  %166 = load ptr, ptr %165, align 8
  %167 = call { i64, ptr } @jv_invalid_get_msg(i64 %164, ptr %166)
  %168 = getelementptr inbounds nuw { i64, ptr }, ptr %9, i32 0, i32 0
  %169 = extractvalue { i64, ptr } %167, 0
  store i64 %169, ptr %168, align 8
  %170 = getelementptr inbounds nuw { i64, ptr }, ptr %9, i32 0, i32 1
  %171 = extractvalue { i64, ptr } %167, 1
  store ptr %171, ptr %170, align 8
  %172 = getelementptr inbounds nuw { i64, ptr }, ptr %9, i32 0, i32 0
  %173 = load i64, ptr %172, align 8
  %174 = getelementptr inbounds nuw { i64, ptr }, ptr %9, i32 0, i32 1
  %175 = load ptr, ptr %174, align 8
  %176 = call { i64, ptr } @jq_format_error(i64 %173, ptr %175)
  %177 = getelementptr inbounds nuw { i64, ptr }, ptr %3, i32 0, i32 0
  %178 = extractvalue { i64, ptr } %176, 0
  store i64 %178, ptr %177, align 8
  %179 = getelementptr inbounds nuw { i64, ptr }, ptr %3, i32 0, i32 1
  %180 = extractvalue { i64, ptr } %176, 1
  store ptr %180, ptr %179, align 8
  br label %181

181:                                              ; preds = %162, %147, %136, %109, %85, %60, %41
  %182 = load { i64, ptr }, ptr %3, align 8
  ret { i64, ptr } %182
}