; Function Attrs: nounwind uwtable
define dso_local { i64, ptr } @jq_format_error(i64 %0, ptr %1) local_unnamed_addr #0 {
  %3 = tail call i32 @jv_get_kind(i64 %0, ptr %1) #13
  %4 = icmp eq i32 %3, 1
  br i1 %4, label %._crit_edge, label %.lr.ph

.lr.ph:                                           ; preds = %2, %tailrecurse.backedge
  %.tr4152 = phi ptr [ %.tr41.be, %tailrecurse.backedge ], [ %1, %2 ]
  %.tr51 = phi i64 [ %.tr.be, %tailrecurse.backedge ], [ %0, %2 ]
  %5 = tail call i32 @jv_get_kind(i64 %.tr51, ptr %.tr4152) #13
  %6 = icmp eq i32 %5, 0
  br i1 %6, label %7, label %15

7:                                                ; preds = %.lr.ph
  %8 = tail call { i64, ptr } @jv_copy(i64 %.tr51, ptr %.tr4152) #13
  %9 = extractvalue { i64, ptr } %8, 0
  %10 = extractvalue { i64, ptr } %8, 1
  %11 = tail call i32 @jv_invalid_has_msg(i64 %9, ptr %10) #13
  %.not = icmp eq i32 %11, 0
  br i1 %.not, label %._crit_edge, label %15

._crit_edge:                                      ; preds = %tailrecurse.backedge, %7, %2
  %.tr.lcssa = phi i64 [ %0, %2 ], [ %.tr51, %7 ], [ %.tr.be, %tailrecurse.backedge ]
  %.tr41.lcssa = phi ptr [ %1, %2 ], [ %.tr4152, %7 ], [ %.tr41.be, %tailrecurse.backedge ]
  tail call void @jv_free(i64 %.tr.lcssa, ptr %.tr41.lcssa) #13
  %12 = load ptr, ptr @stderr, align 8, !tbaa !66
  %13 = tail call i64 @fwrite(ptr nonnull @.str.15, i64 25, i64 1, ptr %12) #14
  %14 = tail call { i64, ptr } @jv_null() #13
  br label %58

15:                                               ; preds = %7, %.lr.ph
  %16 = tail call i32 @jv_get_kind(i64 %.tr51, ptr %.tr4152) #13
  %17 = icmp eq i32 %16, 5
  br i1 %17, label %18, label %21

18:                                               ; preds = %15
  %19 = insertvalue { i64, ptr } poison, i64 %.tr51, 0
  %20 = insertvalue { i64, ptr } %19, ptr %.tr4152, 1
  br label %58

21:                                               ; preds = %15
  %22 = tail call i32 @jv_get_kind(i64 %.tr51, ptr %.tr4152) #13
  %23 = icmp eq i32 %22, 0
  br i1 %23, label %24, label %28

24:                                               ; preds = %21
  %25 = tail call { i64, ptr } @jv_invalid_get_msg(i64 %.tr51, ptr %.tr4152) #13
  %26 = extractvalue { i64, ptr } %25, 0
  %27 = extractvalue { i64, ptr } %25, 1
  br label %28

28:                                               ; preds = %24, %21
  %.sroa.08.0 = phi i64 [ %26, %24 ], [ %.tr51, %21 ]
  %.sroa.20.0 = phi ptr [ %27, %24 ], [ %.tr4152, %21 ]
  %29 = tail call i32 @jv_get_kind(i64 %.sroa.08.0, ptr %.sroa.20.0) #13
  %30 = icmp eq i32 %29, 1
  br i1 %30, label %tailrecurse.backedge, label %31

31:                                               ; preds = %28
  %32 = tail call i32 @jv_get_kind(i64 %.sroa.08.0, ptr %.sroa.20.0) #13
  %.not40 = icmp eq i32 %32, 0
  br i1 %.not40, label %54, label %33

33:                                               ; preds = %31
  %34 = tail call i32 @jv_get_kind(i64 %.sroa.08.0, ptr %.sroa.20.0) #13
  %35 = icmp eq i32 %34, 5
  br i1 %35, label %36, label %39

36:                                               ; preds = %33
  %37 = tail call ptr @jv_string_value(i64 %.sroa.08.0, ptr %.sroa.20.0) #13
  %38 = tail call { i64, ptr } (ptr, ...) @jv_string_fmt(ptr noundef nonnull @.str.16, ptr noundef %37) #13
  br label %58

39:                                               ; preds = %33
  %40 = tail call { i64, ptr } @jv_dump_string(i64 %.sroa.08.0, ptr %.sroa.20.0, i32 noundef 16) #13
  %41 = extractvalue { i64, ptr } %40, 0
  %42 = extractvalue { i64, ptr } %40, 1
  %43 = tail call i32 @jv_get_kind(i64 %41, ptr %42) #13
  %44 = icmp eq i32 %43, 5
  br i1 %44, label %45, label %48

45:                                               ; preds = %39
  %46 = tail call ptr @jv_string_value(i64 %41, ptr %42) #13
  %47 = tail call { i64, ptr } (ptr, ...) @jv_string_fmt(ptr noundef nonnull @.str.16, ptr noundef %46) #13
  br label %58

48:                                               ; preds = %39
  %49 = tail call { i64, ptr } @jv_null() #13
  %50 = extractvalue { i64, ptr } %49, 0
  %51 = extractvalue { i64, ptr } %49, 1
  br label %tailrecurse.backedge

tailrecurse.backedge:                             ; preds = %48, %54, %28
  %.tr.be = phi i64 [ %50, %48 ], [ %56, %54 ], [ %.sroa.08.0, %28 ]
  %.tr41.be = phi ptr [ %51, %48 ], [ %57, %54 ], [ %.sroa.20.0, %28 ]
  %52 = tail call i32 @jv_get_kind(i64 %.tr.be, ptr %.tr41.be) #13
  %53 = icmp eq i32 %52, 1
  br i1 %53, label %._crit_edge, label %.lr.ph

54:                                               ; preds = %31
  %55 = tail call { i64, ptr } @jv_invalid_get_msg(i64 %.sroa.08.0, ptr %.sroa.20.0) #13
  %56 = extractvalue { i64, ptr } %55, 0
  %57 = extractvalue { i64, ptr } %55, 1
  br label %tailrecurse.backedge

58:                                               ; preds = %45, %36, %18, %._crit_edge
  %.fca.1.insert.merged = phi { i64, ptr } [ %14, %._crit_edge ], [ %20, %18 ], [ %38, %36 ], [ %47, %45 ]
  ret { i64, ptr } %.fca.1.insert.merged
}